target datalayout = "e-m:e-p270:32:32-p271:32:32-p272:64:64-i64:64-i128:128-f80:128-n8:16:32:64-S128"
target triple = "x86_64-pc-linux-gnu"

%struct._exr_decode_pipeline = type { i64, ptr, i16, i16, i32, ptr, %struct.exr_chunk_info_t, i32, i32, i64, ptr, ptr, i64, ptr, i64, ptr, i64, ptr, i64, ptr, i64, ptr, i64, ptr, ptr, ptr, ptr, ptr, ptr, [5 x %struct.exr_coding_channel_info_t] }
%struct.exr_chunk_info_t = type { i32, i32, i32, i32, i32, i8, i8, i8, i8, i64, i64, i64, i64, i64 }
%struct.exr_coding_channel_info_t = type { ptr, i32, i32, i32, i32, i8, i8, i16, i16, i16, i32, i32, %union.anon }
%union.anon = type { ptr }

; Function Attrs: inlinehint nounwind uwtable
define internal zeroext i16 @__uint16_identity(i16 noundef zeroext %0) #2 {
  %2 = alloca i16, align 2
  store i16 %0, ptr %2, align 2, !tbaa !44
  %3 = load i16, ptr %2, align 2, !tbaa !44
  ret i16 %3
}

; Function Attrs: inlinehint nounwind uwtable
define internal zeroext i16 @one_to_native16(i16 noundef zeroext %0) #2 {
  %2 = alloca i16, align 2
  store i16 %0, ptr %2, align 2, !tbaa !44
  %3 = load i16, ptr %2, align 2, !tbaa !44
  %4 = call zeroext i16 @__uint16_identity(i16 noundef zeroext %3)
  ret i16 %4
}

; Function Attrs: nounwind uwtable
define internal i32 @unpack_16bit_4chan(ptr noundef %0) #0 {
  %2 = alloca ptr, align 8
  %3 = alloca ptr, align 8
  %4 = alloca ptr, align 8
  %5 = alloca ptr, align 8
  %6 = alloca ptr, align 8
  %7 = alloca ptr, align 8
  %8 = alloca ptr, align 8
  %9 = alloca ptr, align 8
  %10 = alloca ptr, align 8
  %11 = alloca ptr, align 8
  %12 = alloca i32, align 4
  %13 = alloca i32, align 4
  %14 = alloca i32, align 4
  %15 = alloca i32, align 4
  %16 = alloca i32, align 4
  %17 = alloca i32, align 4
  %18 = alloca i32, align 4
  %19 = alloca i32, align 4
  %20 = alloca i32, align 4
  %21 = alloca i32, align 4
  %22 = alloca i32, align 4
  %23 = alloca i32, align 4
  %24 = alloca i32, align 4
  %25 = alloca i32, align 4
  %26 = alloca i32, align 4
  %27 = alloca i32, align 4
  store ptr %0, ptr %2, align 8, !tbaa !3
  call void @llvm.lifetime.start.p0(i64 8, ptr %3) #6
  %28 = load ptr, ptr %2, align 8, !tbaa !3
  %29 = getelementptr inbounds nuw %struct._exr_decode_pipeline, ptr %28, i32 0, i32 13
  %30 = load ptr, ptr %29, align 8, !tbaa !19
  store ptr %30, ptr %3, align 8, !tbaa !20
  call void @llvm.lifetime.start.p0(i64 8, ptr %4) #6
  call void @llvm.lifetime.start.p0(i64 8, ptr %5) #6
  call void @llvm.lifetime.start.p0(i64 8, ptr %6) #6
  call void @llvm.lifetime.start.p0(i64 8, ptr %7) #6
  call void @llvm.lifetime.start.p0(i64 8, ptr %8) #6
  call void @llvm.lifetime.start.p0(i64 8, ptr %9) #6
  call void @llvm.lifetime.start.p0(i64 8, ptr %10) #6
  call void @llvm.lifetime.start.p0(i64 8, ptr %11) #6
  call void @llvm.lifetime.start.p0(i64 4, ptr %12) #6
  call void @llvm.lifetime.start.p0(i64 4, ptr %13) #6
  call void @llvm.lifetime.start.p0(i64 4, ptr %14) #6
  call void @llvm.lifetime.start.p0(i64 4, ptr %15) #6
  call void @llvm.lifetime.start.p0(i64 4, ptr %16) #6
  call void @llvm.lifetime.start.p0(i64 4, ptr %17) #6
  call void @llvm.lifetime.start.p0(i64 4, ptr %18) #6
  call void @llvm.lifetime.start.p0(i64 4, ptr %19) #6
  call void @llvm.lifetime.start.p0(i64 4, ptr %20) #6
  call void @llvm.lifetime.start.p0(i64 4, ptr %21) #6
  %31 = load ptr, ptr %2, align 8, !tbaa !3
  %32 = getelementptr inbounds nuw %struct._exr_decode_pipeline, ptr %31, i32 0, i32 1
  %33 = load ptr, ptr %32, align 8, !tbaa !28
  %34 = getelementptr inbounds %struct.exr_coding_channel_info_t, ptr %33, i64 0
  %35 = getelementptr inbounds nuw %struct.exr_coding_channel_info_t, ptr %34, i32 0, i32 2
  %36 = load i32, ptr %35, align 4, !tbaa !72
  store i32 %36, ptr %12, align 4, !tbaa !8
  %37 = load ptr, ptr %2, align 8, !tbaa !3
  %38 = getelementptr inbounds nuw %struct._exr_decode_pipeline, ptr %37, i32 0, i32 6
  %39 = getelementptr inbounds nuw %struct.exr_chunk_info_t, ptr %38, i32 0, i32 3
  %40 = load i32, ptr %39, align 4, !tbaa !25
  %41 = load ptr, ptr %2, align 8, !tbaa !3
  %42 = getelementptr inbounds nuw %struct._exr_decode_pipeline, ptr %41, i32 0, i32 8
  %43 = load i32, ptr %42, align 4, !tbaa !26
  %44 = sub nsw i32 %40, %43
  store i32 %44, ptr %13, align 4, !tbaa !8
  %45 = load ptr, ptr %2, align 8, !tbaa !3
  %46 = getelementptr inbounds nuw %struct._exr_decode_pipeline, ptr %45, i32 0, i32 1
  %47 = load ptr, ptr %46, align 8, !tbaa !28
  %48 = getelementptr inbounds %struct.exr_coding_channel_info_t, ptr %47, i64 0
  %49 = getelementptr inbounds nuw %struct.exr_coding_channel_info_t, ptr %48, i32 0, i32 10
  %50 = load i32, ptr %49, align 8, !tbaa !38
  store i32 %50, ptr %14, align 4, !tbaa !8
  %51 = load ptr, ptr %2, align 8, !tbaa !3
  %52 = getelementptr inbounds nuw %struct._exr_decode_pipeline, ptr %51, i32 0, i32 1
  %53 = load ptr, ptr %52, align 8, !tbaa !28
  %54 = getelementptr inbounds %struct.exr_coding_channel_info_t, ptr %53, i64 1
  %55 = getelementptr inbounds nuw %struct.exr_coding_channel_info_t, ptr %54, i32 0, i32 10
  %56 = load i32, ptr %55, align 8, !tbaa !38
  store i32 %56, ptr %15, align 4, !tbaa !8
  %57 = load ptr, ptr %2, align 8, !tbaa !3
  %58 = getelementptr inbounds nuw %struct._exr_decode_pipeline, ptr %57, i32 0, i32 1
  %59 = load ptr, ptr %58, align 8, !tbaa !28
  %60 = getelementptr inbounds %struct.exr_coding_channel_info_t, ptr %59, i64 2
  %61 = getelementptr inbounds nuw %struct.exr_coding_channel_info_t, ptr %60, i32 0, i32 10
  %62 = load i32, ptr %61, align 8, !tbaa !38
  store i32 %62, ptr %16, align 4, !tbaa !8
  %63 = load ptr, ptr %2, align 8, !tbaa !3
  %64 = getelementptr inbounds nuw %struct._exr_decode_pipeline, ptr %63, i32 0, i32 1
  %65 = load ptr, ptr %64, align 8, !tbaa !28
  %66 = getelementptr inbounds %struct.exr_coding_channel_info_t, ptr %65, i64 3
  %67 = getelementptr inbounds nuw %struct.exr_coding_channel_info_t, ptr %66, i32 0, i32 10
  %68 = load i32, ptr %67, align 8, !tbaa !38
  store i32 %68, ptr %17, align 4, !tbaa !8
  %69 = load ptr, ptr %2, align 8, !tbaa !3
  %70 = getelementptr inbounds nuw %struct._exr_decode_pipeline, ptr %69, i32 0, i32 1
  %71 = load ptr, ptr %70, align 8, !tbaa !28
  %72 = getelementptr inbounds %struct.exr_coding_channel_info_t, ptr %71, i64 0
  %73 = getelementptr inbounds nuw %struct.exr_coding_channel_info_t, ptr %72, i32 0, i32 11
  %74 = load i32, ptr %73, align 4, !tbaa !37
  store i32 %74, ptr %18, align 4, !tbaa !8
  %75 = load ptr, ptr %2, align 8, !tbaa !3
  %76 = getelementptr inbounds nuw %struct._exr_decode_pipeline, ptr %75, i32 0, i32 1
  %77 = load ptr, ptr %76, align 8, !tbaa !28
  %78 = getelementptr inbounds %struct.exr_coding_channel_info_t, ptr %77, i64 1
  %79 = getelementptr inbounds nuw %struct.exr_coding_channel_info_t, ptr %78, i32 0, i32 11
  %80 = load i32, ptr %79, align 4, !tbaa !37
  store i32 %80, ptr %19, align 4, !tbaa !8
  %81 = load ptr, ptr %2, align 8, !tbaa !3
  %82 = getelementptr inbounds nuw %struct._exr_decode_pipeline, ptr %81, i32 0, i32 1
  %83 = load ptr, ptr %82, align 8, !tbaa !28
  %84 = getelementptr inbounds %struct.exr_coding_channel_info_t, ptr %83, i64 2
  %85 = getelementptr inbounds nuw %struct.exr_coding_channel_info_t, ptr %84, i32 0, i32 11
  %86 = load i32, ptr %85, align 4, !tbaa !37
  store i32 %86, ptr %20, align 4, !tbaa !8
  %87 = load ptr, ptr %2, align 8, !tbaa !3
  %88 = getelementptr inbounds nuw %struct._exr_decode_pipeline, ptr %87, i32 0, i32 1
  %89 = load ptr, ptr %88, align 8, !tbaa !28
  %90 = getelementptr inbounds %struct.exr_coding_channel_info_t, ptr %89, i64 3
  %91 = getelementptr inbounds nuw %struct.exr_coding_channel_info_t, ptr %90, i32 0, i32 11
  %92 = load i32, ptr %91, align 4, !tbaa !37
  store i32 %92, ptr %21, align 4, !tbaa !8
  %93 = load ptr, ptr %2, align 8, !tbaa !3
  %94 = getelementptr inbounds nuw %struct._exr_decode_pipeline, ptr %93, i32 0, i32 1
  %95 = load ptr, ptr %94, align 8, !tbaa !28
  %96 = getelementptr inbounds %struct.exr_coding_channel_info_t, ptr %95, i64 0
  %97 = getelementptr inbounds nuw %struct.exr_coding_channel_info_t, ptr %96, i32 0, i32 12
  %98 = load ptr, ptr %97, align 8, !tbaa !10
  store ptr %98, ptr %8, align 8, !tbaa !20
  %99 = load ptr, ptr %2, align 8, !tbaa !3
  %100 = getelementptr inbounds nuw %struct._exr_decode_pipeline, ptr %99, i32 0, i32 1
  %101 = load ptr, ptr %100, align 8, !tbaa !28
  %102 = getelementptr inbounds %struct.exr_coding_channel_info_t, ptr %101, i64 1
  %103 = getelementptr inbounds nuw %struct.exr_coding_channel_info_t, ptr %102, i32 0, i32 12
  %104 = load ptr, ptr %103, align 8, !tbaa !10
  store ptr %104, ptr %9, align 8, !tbaa !20
  %105 = load ptr, ptr %2, align 8, !tbaa !3
  %106 = getelementptr inbounds nuw %struct._exr_decode_pipeline, ptr %105, i32 0, i32 1
  %107 = load ptr, ptr %106, align 8, !tbaa !28
  %108 = getelementptr inbounds %struct.exr_coding_channel_info_t, ptr %107, i64 2
  %109 = getelementptr inbounds nuw %struct.exr_coding_channel_info_t, ptr %108, i32 0, i32 12
  %110 = load ptr, ptr %109, align 8, !tbaa !10
  store ptr %110, ptr %10, align 8, !tbaa !20
  %111 = load ptr, ptr %2, align 8, !tbaa !3
  %112 = getelementptr inbounds nuw %struct._exr_decode_pipeline, ptr %111, i32 0, i32 1
  %113 = load ptr, ptr %112, align 8, !tbaa !28
  %114 = getelementptr inbounds %struct.exr_coding_channel_info_t, ptr %113, i64 3
  %115 = getelementptr inbounds nuw %struct.exr_coding_channel_info_t, ptr %114, i32 0, i32 12
  %116 = load ptr, ptr %115, align 8, !tbaa !10
  store ptr %116, ptr %11, align 8, !tbaa !20
  %117 = load i32, ptr %12, align 4, !tbaa !8
  %118 = load ptr, ptr %2, align 8, !tbaa !3
  %119 = getelementptr inbounds nuw %struct._exr_decode_pipeline, ptr %118, i32 0, i32 7
  %120 = load i32, ptr %119, align 8, !tbaa !27
  %121 = mul nsw i32 %117, %120
  %122 = mul nsw i32 %121, 8
  %123 = load ptr, ptr %3, align 8, !tbaa !20
  %124 = sext i32 %122 to i64
  %125 = getelementptr inbounds i8, ptr %123, i64 %124
  store ptr %125, ptr %3, align 8, !tbaa !20
  call void @llvm.lifetime.start.p0(i64 4, ptr %22) #6
  %126 = load ptr, ptr %2, align 8, !tbaa !3
  %127 = getelementptr inbounds nuw %struct._exr_decode_pipeline, ptr %126, i32 0, i32 7
  %128 = load i32, ptr %127, align 8, !tbaa !27
  store i32 %128, ptr %22, align 4, !tbaa !8
  br label %129

129:                                              ; preds = %257, %1
  %130 = load i32, ptr %22, align 4, !tbaa !8
  %131 = load i32, ptr %13, align 4, !tbaa !8
  %132 = icmp slt i32 %130, %131
  br i1 %132, label %134, label %133

133:                                              ; preds = %129
  store i32 2, ptr %23, align 4
  call void @llvm.lifetime.end.p0(i64 4, ptr %22) #6
  br label %260

134:                                              ; preds = %129
  %135 = load ptr, ptr %3, align 8, !tbaa !20
  store ptr %135, ptr %4, align 8, !tbaa !42
  %136 = load ptr, ptr %4, align 8, !tbaa !42
  %137 = load i32, ptr %12, align 4, !tbaa !8
  %138 = sext i32 %137 to i64
  %139 = getelementptr inbounds i16, ptr %136, i64 %138
  store ptr %139, ptr %5, align 8, !tbaa !42
  %140 = load ptr, ptr %5, align 8, !tbaa !42
  %141 = load i32, ptr %12, align 4, !tbaa !8
  %142 = sext i32 %141 to i64
  %143 = getelementptr inbounds i16, ptr %140, i64 %142
  store ptr %143, ptr %6, align 8, !tbaa !42
  %144 = load ptr, ptr %6, align 8, !tbaa !42
  %145 = load i32, ptr %12, align 4, !tbaa !8
  %146 = sext i32 %145 to i64
  %147 = getelementptr inbounds i16, ptr %144, i64 %146
  store ptr %147, ptr %7, align 8, !tbaa !42
  %148 = load i32, ptr %12, align 4, !tbaa !8
  %149 = mul nsw i32 %148, 8
  %150 = load ptr, ptr %3, align 8, !tbaa !20
  %151 = sext i32 %149 to i64
  %152 = getelementptr inbounds i8, ptr %150, i64 %151
  store ptr %152, ptr %3, align 8, !tbaa !20
  call void @llvm.lifetime.start.p0(i64 4, ptr %24) #6
  store i32 0, ptr %24, align 4, !tbaa !8
  br label %153

153:                                              ; preds = %171, %134
  %154 = load i32, ptr %24, align 4, !tbaa !8
  %155 = load i32, ptr %12, align 4, !tbaa !8
  %156 = icmp slt i32 %154, %155
  br i1 %156, label %158, label %157

157:                                              ; preds = %153
  store i32 5, ptr %23, align 4
  call void @llvm.lifetime.end.p0(i64 4, ptr %24) #6
  br label %174

158:                                              ; preds = %153
  %159 = load ptr, ptr %4, align 8, !tbaa !42
  %160 = load i32, ptr %24, align 4, !tbaa !8
  %161 = sext i32 %160 to i64
  %162 = getelementptr inbounds i16, ptr %159, i64 %161
  %163 = load i16, ptr %162, align 2, !tbaa !44
  %164 = call zeroext i16 @one_to_native16(i16 noundef zeroext %163)
  %165 = load ptr, ptr %8, align 8, !tbaa !20
  %166 = load i32, ptr %24, align 4, !tbaa !8
  %167 = load i32, ptr %14, align 4, !tbaa !8
  %168 = mul nsw i32 %166, %167
  %169 = sext i32 %168 to i64
  %170 = getelementptr inbounds i8, ptr %165, i64 %169
  store i16 %164, ptr %170, align 2, !tbaa !44
  br label %171

171:                                              ; preds = %158
  %172 = load i32, ptr %24, align 4, !tbaa !8
  %173 = add nsw i32 %172, 1
  store i32 %173, ptr %24, align 4, !tbaa !8
  br label %153, !llvm.loop !110

174:                                              ; preds = %157
  call void @llvm.lifetime.start.p0(i64 4, ptr %25) #6
  store i32 0, ptr %25, align 4, !tbaa !8
  br label %175

175:                                              ; preds = %193, %174
  %176 = load i32, ptr %25, align 4, !tbaa !8
  %177 = load i32, ptr %12, align 4, !tbaa !8
  %178 = icmp slt i32 %176, %177
  br i1 %178, label %180, label %179

179:                                              ; preds = %175
  store i32 8, ptr %23, align 4
  call void @llvm.lifetime.end.p0(i64 4, ptr %25) #6
  br label %196

180:                                              ; preds = %175
  %181 = load ptr, ptr %5, align 8, !tbaa !42
  %182 = load i32, ptr %25, align 4, !tbaa !8
  %183 = sext i32 %182 to i64
  %184 = getelementptr inbounds i16, ptr %181, i64 %183
  %185 = load i16, ptr %184, align 2, !tbaa !44
  %186 = call zeroext i16 @one_to_native16(i16 noundef zeroext %185)
  %187 = load ptr, ptr %9, align 8, !tbaa !20
  %188 = load i32, ptr %25, align 4, !tbaa !8
  %189 = load i32, ptr %15, align 4, !tbaa !8
  %190 = mul nsw i32 %188, %189
  %191 = sext i32 %190 to i64
  %192 = getelementptr inbounds i8, ptr %187, i64 %191
  store i16 %186, ptr %192, align 2, !tbaa !44
  br label %193

193:                                              ; preds = %180
  %194 = load i32, ptr %25, align 4, !tbaa !8
  %195 = add nsw i32 %194, 1
  store i32 %195, ptr %25, align 4, !tbaa !8
  br label %175, !llvm.loop !111

196:                                              ; preds = %179
  call void @llvm.lifetime.start.p0(i64 4, ptr %26) #6
  store i32 0, ptr %26, align 4, !tbaa !8
  br label %197

197:                                              ; preds = %215, %196
  %198 = load i32, ptr %26, align 4, !tbaa !8
  %199 = load i32, ptr %12, align 4, !tbaa !8
  %200 = icmp slt i32 %198, %199
  br i1 %200, label %202, label %201

201:                                              ; preds = %197
  store i32 11, ptr %23, align 4
  call void @llvm.lifetime.end.p0(i64 4, ptr %26) #6
  br label %218

202:                                              ; preds = %197
  %203 = load ptr, ptr %6, align 8, !tbaa !42
  %204 = load i32, ptr %26, align 4, !tbaa !8
  %205 = sext i32 %204 to i64
  %206 = getelementptr inbounds i16, ptr %203, i64 %205
  %207 = load i16, ptr %206, align 2, !tbaa !44
  %208 = call zeroext i16 @one_to_native16(i16 noundef zeroext %207)
  %209 = load ptr, ptr %10, align 8, !tbaa !20
  %210 = load i32, ptr %26, align 4, !tbaa !8
  %211 = load i32, ptr %16, align 4, !tbaa !8
  %212 = mul nsw i32 %210, %211
  %213 = sext i32 %212 to i64
  %214 = getelementptr inbounds i8, ptr %209, i64 %213
  store i16 %208, ptr %214, align 2, !tbaa !44
  br label %215

215:                                              ; preds = %202
  %216 = load i32, ptr %26, align 4, !tbaa !8
  %217 = add nsw i32 %216, 1
  store i32 %217, ptr %26, align 4, !tbaa !8
  br label %197, !llvm.loop !112

218:                                              ; preds = %201
  call void @llvm.lifetime.start.p0(i64 4, ptr %27) #6
  store i32 0, ptr %27, align 4, !tbaa !8
  br label %219

219:                                              ; preds = %237, %218
  %220 = load i32, ptr %27, align 4, !tbaa !8
  %221 = load i32, ptr %12, align 4, !tbaa !8
  %222 = icmp slt i32 %220, %221
  br i1 %222, label %224, label %223

223:                                              ; preds = %219
  store i32 14, ptr %23, align 4
  call void @llvm.lifetime.end.p0(i64 4, ptr %27) #6
  br label %240

224:                                              ; preds = %219
  %225 = load ptr, ptr %7, align 8, !tbaa !42
  %226 = load i32, ptr %27, align 4, !tbaa !8
  %227 = sext i32 %226 to i64
  %228 = getelementptr inbounds i16, ptr %225, i64 %227
  %229 = load i16, ptr %228, align 2, !tbaa !44
  %230 = call zeroext i16 @one_to_native16(i16 noundef zeroext %229)
  %231 = load ptr, ptr %11, align 8, !tbaa !20
  %232 = load i32, ptr %27, align 4, !tbaa !8
  %233 = load i32, ptr %17, align 4, !tbaa !8
  %234 = mul nsw i32 %232, %233
  %235 = sext i32 %234 to i64
  %236 = getelementptr inbounds i8, ptr %231, i64 %235
  store i16 %230, ptr %236, align 2, !tbaa !44
  br label %237

237:                                              ; preds = %224
  %238 = load i32, ptr %27, align 4, !tbaa !8
  %239 = add nsw i32 %238, 1
  store i32 %239, ptr %27, align 4, !tbaa !8
  br label %219, !llvm.loop !113

240:                                              ; preds = %223
  %241 = load i32, ptr %18, align 4, !tbaa !8
  %242 = load ptr, ptr %8, align 8, !tbaa !20
  %243 = sext i32 %241 to i64
  %244 = getelementptr inbounds i8, ptr %242, i64 %243
  store ptr %244, ptr %8, align 8, !tbaa !20
  %245 = load i32, ptr %19, align 4, !tbaa !8
  %246 = load ptr, ptr %9, align 8, !tbaa !20
  %247 = sext i32 %245 to i64
  %248 = getelementptr inbounds i8, ptr %246, i64 %247
  store ptr %248, ptr %9, align 8, !tbaa !20
  %249 = load i32, ptr %20, align 4, !tbaa !8
  %250 = load ptr, ptr %10, align 8, !tbaa !20
  %251 = sext i32 %249 to i64
  %252 = getelementptr inbounds i8, ptr %250, i64 %251
  store ptr %252, ptr %10, align 8, !tbaa !20
  %253 = load i32, ptr %21, align 4, !tbaa !8
  %254 = load ptr, ptr %11, align 8, !tbaa !20
  %255 = sext i32 %253 to i64
  %256 = getelementptr inbounds i8, ptr %254, i64 %255
  store ptr %256, ptr %11, align 8, !tbaa !20
  br label %257

257:                                              ; preds = %240
  %258 = load i32, ptr %22, align 4, !tbaa !8
  %259 = add nsw i32 %258, 1
  store i32 %259, ptr %22, align 4, !tbaa !8
  br label %129, !llvm.loop !114

260:                                              ; preds = %133
  store i32 1, ptr %23, align 4
  call void @llvm.lifetime.end.p0(i64 4, ptr %21) #6
  call void @llvm.lifetime.end.p0(i64 4, ptr %20) #6
  call void @llvm.lifetime.end.p0(i64 4, ptr %19) #6
  call void @llvm.lifetime.end.p0(i64 4, ptr %18) #6
  call void @llvm.lifetime.end.p0(i64 4, ptr %17) #6
  call void @llvm.lifetime.end.p0(i64 4, ptr %16) #6
  call void @llvm.lifetime.end.p0(i64 4, ptr %15) #6
  call void @llvm.lifetime.end.p0(i64 4, ptr %14) #6
  call void @llvm.lifetime.end.p0(i64 4, ptr %13) #6
  call void @llvm.lifetime.end.p0(i64 4, ptr %12) #6
  call void @llvm.lifetime.end.p0(i64 8, ptr %11) #6
  call void @llvm.lifetime.end.p0(i64 8, ptr %10) #6
  call void @llvm.lifetime.end.p0(i64 8, ptr %9) #6
  call void @llvm.lifetime.end.p0(i64 8, ptr %8) #6
  call void @llvm.lifetime.end.p0(i64 8, ptr %7) #6
  call void @llvm.lifetime.end.p0(i64 8, ptr %6) #6
  call void @llvm.lifetime.end.p0(i64 8, ptr %5) #6
  call void @llvm.lifetime.end.p0(i64 8, ptr %4) #6
  call void @llvm.lifetime.end.p0(i64 8, ptr %3) #6
  ret i32 0
}