; Function Attrs: nofree norecurse nosync nounwind memory(readwrite, inaccessiblemem: none) uwtable
define internal noundef i32 @unpack_16bit_4chan(ptr noundef readonly captures(none) %0) #1 {
  %2 = getelementptr inbounds nuw i8, ptr %0, i64 8
  %3 = load ptr, ptr %2, align 8, !tbaa !22
  %4 = getelementptr inbounds nuw i8, ptr %3, i64 12
  %5 = load i32, ptr %4, align 4, !tbaa !65
  %6 = getelementptr inbounds nuw i8, ptr %0, i64 44
  %7 = load i32, ptr %6, align 4, !tbaa !16
  %8 = getelementptr inbounds nuw i8, ptr %0, i64 100
  %9 = load i32, ptr %8, align 4, !tbaa !17
  %10 = sub nsw i32 %7, %9
  %11 = getelementptr inbounds nuw i8, ptr %3, i64 32
  %12 = load i32, ptr %11, align 8, !tbaa !31
  %13 = getelementptr inbounds nuw i8, ptr %3, i64 80
  %14 = load i32, ptr %13, align 8, !tbaa !31
  %15 = getelementptr inbounds nuw i8, ptr %3, i64 128
  %16 = load i32, ptr %15, align 8, !tbaa !31
  %17 = getelementptr inbounds nuw i8, ptr %3, i64 176
  %18 = load i32, ptr %17, align 8, !tbaa !31
  %19 = getelementptr inbounds nuw i8, ptr %0, i64 96
  %20 = load i32, ptr %19, align 8, !tbaa !19
  %21 = icmp slt i32 %20, %10
  br i1 %21, label %.lr.ph97, label %._crit_edge98

.lr.ph97:                                         ; preds = %1
  %22 = shl i32 %5, 3
  %23 = getelementptr inbounds nuw i8, ptr %3, i64 180
  %24 = load i32, ptr %23, align 4, !tbaa !32
  %25 = getelementptr inbounds nuw i8, ptr %3, i64 132
  %26 = load i32, ptr %25, align 4, !tbaa !32
  %27 = getelementptr inbounds nuw i8, ptr %3, i64 84
  %28 = load i32, ptr %27, align 4, !tbaa !32
  %29 = getelementptr inbounds nuw i8, ptr %3, i64 36
  %30 = load i32, ptr %29, align 4, !tbaa !32
  %31 = sext i32 %5 to i64
  %32 = sext i32 %22 to i64
  %33 = icmp sgt i32 %5, 0
  %34 = sext i32 %30 to i64
  %35 = sext i32 %28 to i64
  %36 = sext i32 %26 to i64
  %37 = sext i32 %24 to i64
  br i1 %33, label %.lr.ph.us.preheader, label %._crit_edge98

.lr.ph.us.preheader:                              ; preds = %.lr.ph97
  %38 = getelementptr inbounds nuw i8, ptr %3, i64 40
  %39 = load ptr, ptr %38, align 8, !tbaa !3
  %40 = getelementptr inbounds nuw i8, ptr %3, i64 88
  %41 = load ptr, ptr %40, align 8, !tbaa !3
  %42 = getelementptr inbounds nuw i8, ptr %3, i64 136
  %43 = load ptr, ptr %42, align 8, !tbaa !3
  %44 = getelementptr inbounds nuw i8, ptr %3, i64 184
  %45 = load ptr, ptr %44, align 8, !tbaa !3
  %46 = getelementptr inbounds nuw i8, ptr %0, i64 136
  %47 = load ptr, ptr %46, align 8, !tbaa !21
  %48 = mul i32 %22, %20
  %49 = sext i32 %48 to i64
  %50 = getelementptr inbounds i8, ptr %47, i64 %49
  %51 = sext i32 %12 to i64
  %52 = sext i32 %14 to i64
  %53 = sext i32 %16 to i64
  %54 = sext i32 %18 to i64
  %wide.trip.count = zext nneg i32 %5 to i64
  br label %.lr.ph.us

.lr.ph.us:                                        ; preds = %.lr.ph.us.preheader, %._crit_edge.us
  %.07495.us = phi i32 [ %62, %._crit_edge.us ], [ %20, %.lr.ph.us.preheader ]
  %.07594.us = phi ptr [ %81, %._crit_edge.us ], [ %50, %.lr.ph.us.preheader ]
  %.07693.us = phi ptr [ %58, %._crit_edge.us ], [ %39, %.lr.ph.us.preheader ]
  %.07792.us = phi ptr [ %59, %._crit_edge.us ], [ %41, %.lr.ph.us.preheader ]
  %.07891.us = phi ptr [ %60, %._crit_edge.us ], [ %43, %.lr.ph.us.preheader ]
  %.07990.us = phi ptr [ %61, %._crit_edge.us ], [ %45, %.lr.ph.us.preheader ]
  %55 = getelementptr inbounds nuw i16, ptr %.07594.us, i64 %31
  %56 = getelementptr inbounds nuw i16, ptr %55, i64 %31
  %57 = getelementptr inbounds nuw i16, ptr %56, i64 %31
  br label %76

._crit_edge.us:                                   ; preds = %.lr.ph89.us
  %58 = getelementptr inbounds i8, ptr %.07693.us, i64 %34
  %59 = getelementptr inbounds i8, ptr %.07792.us, i64 %35
  %60 = getelementptr inbounds i8, ptr %.07891.us, i64 %36
  %61 = getelementptr inbounds i8, ptr %.07990.us, i64 %37
  %62 = add nsw i32 %.07495.us, 1
  %63 = icmp slt i32 %62, %10
  br i1 %63, label %.lr.ph.us, label %._crit_edge98, !llvm.loop !100

.lr.ph89.us:                                      ; preds = %.lr.ph87.us, %.lr.ph89.us
  %indvars.iv153 = phi i64 [ %indvars.iv.next154, %.lr.ph89.us ], [ 0, %.lr.ph87.us ]
  %64 = getelementptr inbounds nuw i16, ptr %57, i64 %indvars.iv153
  %65 = load i16, ptr %64, align 2, !tbaa !36
  %66 = mul nsw i64 %indvars.iv153, %54
  %67 = getelementptr inbounds i8, ptr %.07990.us, i64 %66
  store i16 %65, ptr %67, align 2, !tbaa !36
  %indvars.iv.next154 = add nuw nsw i64 %indvars.iv153, 1
  %exitcond157.not = icmp eq i64 %indvars.iv.next154, %wide.trip.count
  br i1 %exitcond157.not, label %._crit_edge.us, label %.lr.ph89.us, !llvm.loop !101

.lr.ph87.us:                                      ; preds = %.lr.ph85.us, %.lr.ph87.us
  %indvars.iv148 = phi i64 [ %indvars.iv.next149, %.lr.ph87.us ], [ 0, %.lr.ph85.us ]
  %68 = getelementptr inbounds nuw i16, ptr %56, i64 %indvars.iv148
  %69 = load i16, ptr %68, align 2, !tbaa !36
  %70 = mul nsw i64 %indvars.iv148, %53
  %71 = getelementptr inbounds i8, ptr %.07891.us, i64 %70
  store i16 %69, ptr %71, align 2, !tbaa !36
  %indvars.iv.next149 = add nuw nsw i64 %indvars.iv148, 1
  %exitcond152.not = icmp eq i64 %indvars.iv.next149, %wide.trip.count
  br i1 %exitcond152.not, label %.lr.ph89.us, label %.lr.ph87.us, !llvm.loop !102

.lr.ph85.us:                                      ; preds = %.lr.ph85.us.preheader, %.lr.ph85.us
  %indvars.iv143 = phi i64 [ 0, %.lr.ph85.us.preheader ], [ %indvars.iv.next144, %.lr.ph85.us ]
  %72 = getelementptr inbounds nuw i16, ptr %55, i64 %indvars.iv143
  %73 = load i16, ptr %72, align 2, !tbaa !36
  %74 = mul nsw i64 %indvars.iv143, %52
  %75 = getelementptr inbounds i8, ptr %.07792.us, i64 %74
  store i16 %73, ptr %75, align 2, !tbaa !36
  %indvars.iv.next144 = add nuw nsw i64 %indvars.iv143, 1
  %exitcond147.not = icmp eq i64 %indvars.iv.next144, %wide.trip.count
  br i1 %exitcond147.not, label %.lr.ph87.us, label %.lr.ph85.us, !llvm.loop !103

76:                                               ; preds = %.lr.ph.us, %76
  %indvars.iv = phi i64 [ 0, %.lr.ph.us ], [ %indvars.iv.next, %76 ]
  %77 = getelementptr inbounds nuw i16, ptr %.07594.us, i64 %indvars.iv
  %78 = load i16, ptr %77, align 2, !tbaa !36
  %79 = mul nsw i64 %indvars.iv, %51
  %80 = getelementptr inbounds i8, ptr %.07693.us, i64 %79
  store i16 %78, ptr %80, align 2, !tbaa !36
  %indvars.iv.next = add nuw nsw i64 %indvars.iv, 1
  %exitcond.not = icmp eq i64 %indvars.iv.next, %wide.trip.count
  br i1 %exitcond.not, label %.lr.ph85.us.preheader, label %76, !llvm.loop !104

.lr.ph85.us.preheader:                            ; preds = %76
  %81 = getelementptr inbounds nuw i8, ptr %.07594.us, i64 %32
  br label %.lr.ph85.us

._crit_edge98:                                    ; preds = %._crit_edge.us, %.lr.ph97, %1
  ret i32 0
}